; Function Attrs: null_pointer_is_valid sspstrong uwtable
define internal i32 @raknet_dissect_unconnected_pong(ptr noundef %0, ptr noundef readonly captures(none) %1, ptr noundef %2, ptr readnone captures(none) %3) #0 {
  %5 = alloca i32, align 4
  call void @llvm.lifetime.start.p0(i64 4, ptr nonnull %5) #5
  %6 = load i32, ptr @proto_raknet, align 4
  %7 = tail call ptr @proto_tree_add_item(ptr noundef %2, i32 noundef %6, ptr noundef %0, i32 noundef 0, i32 noundef -1, i32 noundef 0)
  %8 = load i32, ptr @ett_raknet, align 4
  %9 = tail call ptr @proto_item_add_subtree(ptr noundef %7, i32 noundef %8)
  %10 = tail call zeroext i8 @tvb_get_uint8(ptr noundef %0, i32 noundef 0)
  %11 = load i32, ptr @hf_raknet_offline_message_id, align 4
  %12 = tail call ptr @proto_tree_add_item(ptr noundef %9, i32 noundef %11, ptr noundef %0, i32 noundef 0, i32 noundef 1, i32 noundef 0)
  %13 = getelementptr inbounds nuw i8, ptr %1, i64 8
  %14 = load ptr, ptr %13, align 8
  %15 = zext i8 %10 to i32
  %16 = tail call ptr @val_to_str(i32 noundef %15, ptr noundef nonnull @raknet_offline_message_names, ptr noundef nonnull @.str.205)
  tail call void @col_add_str(ptr noundef %14, i32 noundef 25, ptr noundef %16)
  tail call void (ptr, ptr, ...) @proto_item_append_text(ptr noundef %7, ptr noundef nonnull @.str.206, i32 noundef %15)
  %17 = load i32, ptr @hf_raknet_timestamp, align 4
  %18 = tail call ptr @proto_tree_add_item(ptr noundef %9, i32 noundef %17, ptr noundef %0, i32 noundef 1, i32 noundef 8, i32 noundef 0)
  %19 = load i32, ptr @hf_raknet_server_guid, align 4
  %20 = tail call ptr @proto_tree_add_item(ptr noundef %9, i32 noundef %19, ptr noundef %0, i32 noundef 9, i32 noundef 8, i32 noundef 0)
  %21 = load i32, ptr @hf_raknet_offline_message_data_id, align 4
  %22 = tail call ptr @proto_tree_add_item(ptr noundef %9, i32 noundef %21, ptr noundef %0, i32 noundef 17, i32 noundef 16, i32 noundef 0)
  %23 = load i32, ptr @hf_raknet_0x1C_server_id_str_len, align 4
  %24 = call ptr @proto_tree_add_item_ret_uint(ptr noundef %9, i32 noundef %23, ptr noundef %0, i32 noundef 33, i32 noundef 2, i32 noundef 0, ptr noundef nonnull %5)
  %25 = load i32, ptr @hf_raknet_0x1C_server_id_str, align 4
  %26 = load i32, ptr %5, align 4
  %27 = call ptr @proto_tree_add_item(ptr noundef %9, i32 noundef %25, ptr noundef %0, i32 noundef 35, i32 noundef %26, i32 noundef 0)
  %28 = load i32, ptr %5, align 4
  %29 = add i32 %28, 35
  call void @llvm.lifetime.end.p0(i64 4, ptr nonnull %5) #5
  ret i32 %29
}